; ModuleID = '22/31.c'
source_filename = "22/31.c"
target datalayout = "e-m:e-p270:32:32-p271:32:32-p272:64:64-i64:64-f80:128-n8:16:32:64-S128"
target triple = "x86_64-pc-linux-gnu"

@.str = private unnamed_addr constant [3 x i8] c"%d\00", align 1
@.str.1 = private unnamed_addr constant [4 x i8] c"No\0A\00", align 1
@.str.2 = private unnamed_addr constant [4 x i8] c"%d\0A\00", align 1

; Function Attrs: noinline nounwind uwtable
define dso_local void @main() #0 {
  %1 = alloca [300 x i32], align 16
  %2 = alloca i32, align 4
  %3 = alloca i32, align 4
  %4 = alloca i32, align 4
  %5 = alloca i32, align 4
  %6 = alloca i32, align 4
  %7 = alloca i32, align 4
  %8 = alloca i8, align 1
  store i32 0, i32* %7, align 4
  store i32 0, i32* %2, align 4
  br label %9

9:                                                ; preds = %20, %0
  %10 = load i8, i8* %8, align 1
  %11 = sext i8 %10 to i32
  %12 = icmp ne i32 %11, 10
  br i1 %12, label %13, label %23

13:                                               ; preds = %9
  %14 = load i32, i32* %2, align 4
  %15 = sext i32 %14 to i64
  %16 = getelementptr inbounds [300 x i32], [300 x i32]* %1, i64 0, i64 %15
  %17 = call i32 (i8*, ...) @__isoc99_scanf(i8* getelementptr inbounds ([3 x i8], [3 x i8]* @.str, i64 0, i64 0), i32* %16)
  %18 = call i32 @getchar()
  %19 = trunc i32 %18 to i8
  store i8 %19, i8* %8, align 1
  br label %20

20:                                               ; preds = %13
  %21 = load i32, i32* %2, align 4
  %22 = add nsw i32 %21, 1
  store i32 %22, i32* %2, align 4
  br label %9

23:                                               ; preds = %9
  %24 = load i32, i32* %2, align 4
  store i32 %24, i32* %4, align 4
  %25 = load i32, i32* %4, align 4
  %26 = icmp eq i32 %25, 1
  br i1 %26, label %27, label %29

27:                                               ; preds = %23
  %28 = call i32 (i8*, ...) @printf(i8* getelementptr inbounds ([4 x i8], [4 x i8]* @.str.1, i64 0, i64 0))
  br label %112

29:                                               ; preds = %23
  store i32 0, i32* %2, align 4
  br label %30

30:                                               ; preds = %74, %29
  %31 = load i32, i32* %2, align 4
  %32 = load i32, i32* %4, align 4
  %33 = icmp slt i32 %31, %32
  br i1 %33, label %34, label %77

34:                                               ; preds = %30
  %35 = load i32, i32* %2, align 4
  store i32 %35, i32* %6, align 4
  %36 = load i32, i32* %2, align 4
  %37 = add nsw i32 %36, 1
  store i32 %37, i32* %3, align 4
  br label %38

38:                                               ; preds = %55, %34
  %39 = load i32, i32* %3, align 4
  %40 = load i32, i32* %4, align 4
  %41 = icmp slt i32 %39, %40
  br i1 %41, label %42, label %58

42:                                               ; preds = %38
  %43 = load i32, i32* %3, align 4
  %44 = sext i32 %43 to i64
  %45 = getelementptr inbounds [300 x i32], [300 x i32]* %1, i64 0, i64 %44
  %46 = load i32, i32* %45, align 4
  %47 = load i32, i32* %6, align 4
  %48 = sext i32 %47 to i64
  %49 = getelementptr inbounds [300 x i32], [300 x i32]* %1, i64 0, i64 %48
  %50 = load i32, i32* %49, align 4
  %51 = icmp sgt i32 %46, %50
  br i1 %51, label %52, label %54

52:                                               ; preds = %42
  %53 = load i32, i32* %3, align 4
  store i32 %53, i32* %6, align 4
  br label %54

54:                                               ; preds = %52, %42
  br label %55

55:                                               ; preds = %54
  %56 = load i32, i32* %3, align 4
  %57 = add nsw i32 %56, 1
  store i32 %57, i32* %3, align 4
  br label %38

58:                                               ; preds = %38
  %59 = load i32, i32* %2, align 4
  %60 = sext i32 %59 to i64
  %61 = getelementptr inbounds [300 x i32], [300 x i32]* %1, i64 0, i64 %60
  %62 = load i32, i32* %61, align 4
  store i32 %62, i32* %5, align 4
  %63 = load i32, i32* %6, align 4
  %64 = sext i32 %63 to i64
  %65 = getelementptr inbounds [300 x i32], [300 x i32]* %1, i64 0, i64 %64
  %66 = load i32, i32* %65, align 4
  %67 = load i32, i32* %2, align 4
  %68 = sext i32 %67 to i64
  %69 = getelementptr inbounds [300 x i32], [300 x i32]* %1, i64 0, i64 %68
  store i32 %66, i32* %69, align 4
  %70 = load i32, i32* %5, align 4
  %71 = load i32, i32* %6, align 4
  %72 = sext i32 %71 to i64
  %73 = getelementptr inbounds [300 x i32], [300 x i32]* %1, i64 0, i64 %72
  store i32 %70, i32* %73, align 4
  br label %74

74:                                               ; preds = %58
  %75 = load i32, i32* %2, align 4
  %76 = add nsw i32 %75, 1
  store i32 %76, i32* %2, align 4
  br label %30

77:                                               ; preds = %30
  store i32 0, i32* %2, align 4
  br label %78

78:                                               ; preds = %96, %77
  %79 = load i32, i32* %2, align 4
  %80 = load i32, i32* %4, align 4
  %81 = sub nsw i32 %80, 1
  %82 = icmp slt i32 %79, %81
  br i1 %82, label %83, label %99

83:                                               ; preds = %78
  %84 = load i32, i32* %2, align 4
  %85 = sext i32 %84 to i64
  %86 = getelementptr inbounds [300 x i32], [300 x i32]* %1, i64 0, i64 %85
  %87 = load i32, i32* %86, align 4
  %88 = load i32, i32* %2, align 4
  %89 = add nsw i32 %88, 1
  %90 = sext i32 %89 to i64
  %91 = getelementptr inbounds [300 x i32], [300 x i32]* %1, i64 0, i64 %90
  %92 = load i32, i32* %91, align 4
  %93 = icmp ne i32 %87, %92
  br i1 %93, label %94, label %95

94:                                               ; preds = %83
  store i32 1, i32* %7, align 4
  br label %99

95:                                               ; preds = %83
  br label %96

96:                                               ; preds = %95
  %97 = load i32, i32* %2, align 4
  %98 = add nsw i32 %97, 1
  store i32 %98, i32* %2, align 4
  br label %78

99:                                               ; preds = %94, %78
  %100 = load i32, i32* %7, align 4
  %101 = icmp eq i32 %100, 0
  br i1 %101, label %102, label %104

102:                                              ; preds = %99
  %103 = call i32 (i8*, ...) @printf(i8* getelementptr inbounds ([4 x i8], [4 x i8]* @.str.1, i64 0, i64 0))
  br label %111

104:                                              ; preds = %99
  %105 = load i32, i32* %2, align 4
  %106 = add nsw i32 %105, 1
  %107 = sext i32 %106 to i64
  %108 = getelementptr inbounds [300 x i32], [300 x i32]* %1, i64 0, i64 %107
  %109 = load i32, i32* %108, align 4
  %110 = call i32 (i8*, ...) @printf(i8* getelementptr inbounds ([4 x i8], [4 x i8]* @.str.2, i64 0, i64 0), i32 %109)
  br label %111

111:                                              ; preds = %104, %102
  br label %112

112:                                              ; preds = %111, %27
  ret void
}

declare dso_local i32 @__isoc99_scanf(i8*, ...) #1

declare dso_local i32 @getchar() #1

declare dso_local i32 @printf(i8*, ...) #1


!llvm.module.flags = !{!0}
!llvm.ident = !{!1}

!0 = !{i32 1, !"wchar_size", i32 4}
!1 = !{!"clang version 10.0.0-4ubuntu1 "}
